; Function Attrs: nounwind uwtable
define ptr @Aig_ManDupRepres_rec(ptr noundef %0, ptr noundef %1, ptr noundef captures(none) %2) local_unnamed_addr #0 {
  %4 = getelementptr inbounds nuw i8, ptr %2, i64 40
  %5 = load ptr, ptr %4, align 8, !tbaa !34
  %.not = icmp eq ptr %5, null
  br i1 %.not, label %6, label %common.ret

6:                                                ; preds = %3
  %7 = getelementptr i8, ptr %1, i64 256
  %.val28 = load ptr, ptr %7, align 8, !tbaa !67
  %.not.i = icmp eq ptr %.val28, null
  br i1 %.not.i, label %Aig_ObjRepr.exit.thread, label %Aig_ObjRepr.exit

Aig_ObjRepr.exit:                                 ; preds = %6
  %8 = getelementptr inbounds nuw i8, ptr %2, i64 36
  %9 = load i32, ptr %8, align 4, !tbaa !46
  %10 = sext i32 %9 to i64
  %11 = getelementptr inbounds ptr, ptr %.val28, i64 %10
  %12 = load ptr, ptr %11, align 8, !tbaa !66
  %.not26 = icmp eq ptr %12, null
  br i1 %.not26, label %Aig_ObjRepr.exit.thread, label %13

common.ret.sink.split:                            ; preds = %13, %Aig_ObjChild1Repres.exit
  %.sink = phi ptr [ %103, %Aig_ObjChild1Repres.exit ], [ %26, %13 ]
  store ptr %.sink, ptr %4, align 8, !tbaa !34
  br label %common.ret

common.ret:                                       ; preds = %common.ret.sink.split, %3
  %common.ret.op = phi ptr [ %5, %3 ], [ %.sink, %common.ret.sink.split ]
  ret ptr %common.ret.op

13:                                               ; preds = %Aig_ObjRepr.exit
  %14 = tail call ptr @Aig_ManDupRepres_rec(ptr noundef %0, ptr noundef nonnull %1, ptr noundef nonnull %12)
  %15 = getelementptr inbounds nuw i8, ptr %12, i64 40
  %16 = load ptr, ptr %15, align 8, !tbaa !34
  %17 = getelementptr inbounds nuw i8, ptr %12, i64 24
  %18 = load i64, ptr %17, align 8
  %19 = getelementptr inbounds nuw i8, ptr %2, i64 24
  %20 = load i64, ptr %19, align 8
  %21 = xor i64 %20, %18
  %22 = lshr i64 %21, 3
  %23 = and i64 %22, 1
  %24 = ptrtoint ptr %16 to i64
  %25 = xor i64 %23, %24
  %26 = inttoptr i64 %25 to ptr
  br label %common.ret.sink.split

Aig_ObjRepr.exit.thread:                          ; preds = %6, %Aig_ObjRepr.exit
  %27 = getelementptr i8, ptr %2, i64 8
  %.val = load ptr, ptr %27, align 8, !tbaa !41
  %28 = ptrtoint ptr %.val to i64
  %29 = and i64 %28, -2
  %30 = inttoptr i64 %29 to ptr
  %31 = tail call ptr @Aig_ManDupRepres_rec(ptr noundef %0, ptr noundef nonnull %1, ptr noundef %30)
  %32 = getelementptr i8, ptr %2, i64 16
  %.val27 = load ptr, ptr %32, align 8, !tbaa !42
  %33 = ptrtoint ptr %.val27 to i64
  %34 = and i64 %33, -2
  %35 = inttoptr i64 %34 to ptr
  %36 = tail call ptr @Aig_ManDupRepres_rec(ptr noundef %0, ptr noundef nonnull %1, ptr noundef %35)
  %.val29 = load ptr, ptr %7, align 8, !tbaa !67
  %.val30 = load ptr, ptr %27, align 8, !tbaa !41
  %37 = ptrtoint ptr %.val30 to i64
  %38 = and i64 %37, -2
  %39 = inttoptr i64 %38 to ptr
  %.not.i.i.i = icmp eq ptr %.val29, null
  br i1 %.not.i.i.i, label %Aig_ObjChild0Repres.exit.thread41, label %Aig_ObjRepr.exit.i.i

Aig_ObjChild0Repres.exit.thread41:                ; preds = %Aig_ObjRepr.exit.thread
  %40 = getelementptr inbounds nuw i8, ptr %39, i64 40
  %41 = load ptr, ptr %40, align 8, !tbaa !34
  %42 = ptrtoint ptr %41 to i64
  %43 = and i64 %37, 1
  %44 = xor i64 %43, %42
  %45 = inttoptr i64 %44 to ptr
  %.val3242 = load ptr, ptr %32, align 8, !tbaa !42
  %46 = ptrtoint ptr %.val3242 to i64
  %47 = and i64 %46, -2
  %48 = inttoptr i64 %47 to ptr
  br label %Aig_ObjRepr.exit.thread.i.i37

Aig_ObjRepr.exit.i.i:                             ; preds = %Aig_ObjRepr.exit.thread
  %49 = getelementptr inbounds nuw i8, ptr %39, i64 36
  %50 = load i32, ptr %49, align 4, !tbaa !46
  %51 = sext i32 %50 to i64
  %52 = getelementptr inbounds ptr, ptr %.val29, i64 %51
  %53 = load ptr, ptr %52, align 8, !tbaa !66
  %.not.i.i = icmp eq ptr %53, null
  br i1 %.not.i.i, label %Aig_ObjChild0Repres.exit, label %Aig_ObjChild0Repres.exit.thread

Aig_ObjChild0Repres.exit.thread:                  ; preds = %Aig_ObjRepr.exit.i.i
  %54 = getelementptr inbounds nuw i8, ptr %53, i64 40
  %55 = load ptr, ptr %54, align 8, !tbaa !34
  %56 = getelementptr inbounds nuw i8, ptr %39, i64 24
  %57 = load i64, ptr %56, align 8
  %58 = getelementptr inbounds nuw i8, ptr %53, i64 24
  %59 = load i64, ptr %58, align 8
  %60 = xor i64 %59, %57
  %61 = lshr i64 %60, 3
  %62 = and i64 %61, 1
  %63 = ptrtoint ptr %55 to i64
  %64 = and i64 %37, 1
  %65 = xor i64 %64, %63
  %66 = xor i64 %65, %62
  br label %Aig_ObjRepr.exit.i.i34

Aig_ObjChild0Repres.exit:                         ; preds = %Aig_ObjRepr.exit.i.i
  %67 = getelementptr inbounds nuw i8, ptr %39, i64 40
  %68 = load ptr, ptr %67, align 8, !tbaa !34
  %69 = ptrtoint ptr %68 to i64
  %70 = and i64 %37, 1
  %71 = xor i64 %70, %69
  br label %Aig_ObjRepr.exit.i.i34

Aig_ObjRepr.exit.i.i34:                           ; preds = %Aig_ObjChild0Repres.exit, %Aig_ObjChild0Repres.exit.thread
  %.in44 = phi i64 [ %66, %Aig_ObjChild0Repres.exit.thread ], [ %71, %Aig_ObjChild0Repres.exit ]
  %72 = inttoptr i64 %.in44 to ptr
  %.in43 = load ptr, ptr %32, align 8, !tbaa !42
  %73 = ptrtoint ptr %.in43 to i64
  %.in = and i64 %73, -2
  %74 = inttoptr i64 %.in to ptr
  %75 = getelementptr inbounds nuw i8, ptr %74, i64 36
  %76 = load i32, ptr %75, align 4, !tbaa !46
  %77 = sext i32 %76 to i64
  %78 = getelementptr inbounds ptr, ptr %.val29, i64 %77
  %79 = load ptr, ptr %78, align 8, !tbaa !66
  %.not.i.i35 = icmp eq ptr %79, null
  br i1 %.not.i.i35, label %Aig_ObjRepr.exit.thread.i.i37, label %80

80:                                               ; preds = %Aig_ObjRepr.exit.i.i34
  %81 = getelementptr inbounds nuw i8, ptr %79, i64 40
  %82 = load ptr, ptr %81, align 8, !tbaa !34
  %83 = getelementptr inbounds nuw i8, ptr %74, i64 24
  %84 = load i64, ptr %83, align 8
  %85 = getelementptr inbounds nuw i8, ptr %79, i64 24
  %86 = load i64, ptr %85, align 8
  %87 = xor i64 %86, %84
  %88 = lshr i64 %87, 3
  %89 = and i64 %88, 1
  %90 = ptrtoint ptr %82 to i64
  %91 = xor i64 %89, %90
  br label %Aig_ObjChild1Repres.exit

Aig_ObjRepr.exit.thread.i.i37:                    ; preds = %Aig_ObjChild0Repres.exit.thread41, %Aig_ObjRepr.exit.i.i34
  %92 = phi ptr [ %74, %Aig_ObjRepr.exit.i.i34 ], [ %48, %Aig_ObjChild0Repres.exit.thread41 ]
  %93 = phi i64 [ %73, %Aig_ObjRepr.exit.i.i34 ], [ %46, %Aig_ObjChild0Repres.exit.thread41 ]
  %94 = phi ptr [ %72, %Aig_ObjRepr.exit.i.i34 ], [ %45, %Aig_ObjChild0Repres.exit.thread41 ]
  %95 = getelementptr inbounds nuw i8, ptr %92, i64 40
  %96 = load ptr, ptr %95, align 8, !tbaa !34
  %97 = ptrtoint ptr %96 to i64
  br label %Aig_ObjChild1Repres.exit

Aig_ObjChild1Repres.exit:                         ; preds = %80, %Aig_ObjRepr.exit.thread.i.i37
  %98 = phi i64 [ %73, %80 ], [ %93, %Aig_ObjRepr.exit.thread.i.i37 ]
  %99 = phi ptr [ %72, %80 ], [ %94, %Aig_ObjRepr.exit.thread.i.i37 ]
  %.0.i.i36 = phi i64 [ %91, %80 ], [ %97, %Aig_ObjRepr.exit.thread.i.i37 ]
  %100 = and i64 %98, 1
  %101 = xor i64 %.0.i.i36, %100
  %102 = inttoptr i64 %101 to ptr
  %103 = tail call ptr @Aig_And(ptr noundef %0, ptr noundef %99, ptr noundef %102) #11
  br label %common.ret.sink.split
}